; Function Attrs: mustprogress nofree norecurse nosync nounwind willreturn memory(read, inaccessiblemem: write) uwtable
define dso_local noundef zeroext range(i8 0, 8) i8 @_ZNK4llvm6object19XCOFFTracebackTable23getOnConditionDirectiveEv(ptr nocapture noundef nonnull readonly align 8 dereferenceable(288) %0) local_unnamed_addr #9 align 2 {
  %2 = load ptr, ptr %0, align 8
  call void @llvm.assume(i1 true) [ "align"(ptr %2, i64 1) ]
  %.0.copyload.i.i.i.i.i.i = load i32, ptr %2, align 1
  %sum.shift = lshr i32 %.0.copyload.i.i.i.i.i.i, 26
  %3 = trunc nuw nsw i32 %sum.shift to i8
  %4 = and i8 %3, 7
  ret i8 %4
}